target datalayout = "e-m:e-p270:32:32-p271:32:32-p272:64:64-i64:64-i128:128-f80:128-n8:16:32:64-S128"
target triple = "x86_64-pc-linux-gnu"

%struct.timeval = type { i64, i64 }
%struct.timespec = type { i64, i64 }
%struct.H5_timer_t = type { %struct.H5_timevals_t, %struct.H5_timevals_t, %struct.H5_timevals_t, i8 }
%struct.H5_timevals_t = type { double, double, double }
%struct.rusage = type { %struct.timeval, %struct.timeval, %union.anon, %union.anon.0, %union.anon.1, %union.anon.2, %union.anon.3, %union.anon.4, %union.anon.5, %union.anon.6, %union.anon.7, %union.anon.8, %union.anon.9, %union.anon.10, %union.anon.11, %union.anon.12 }
%union.anon = type { i64 }
%union.anon.0 = type { i64 }
%union.anon.1 = type { i64 }
%union.anon.2 = type { i64 }
%union.anon.3 = type { i64 }
%union.anon.4 = type { i64 }
%union.anon.5 = type { i64 }
%union.anon.6 = type { i64 }
%union.anon.7 = type { i64 }
%union.anon.8 = type { i64 }
%union.anon.9 = type { i64 }
%union.anon.10 = type { i64 }
%union.anon.11 = type { i64 }
%union.anon.12 = type { i64 }

@H5_init_g = external global i8, align 1
@H5_libterm_g = external global i8, align 1

; Function Attrs: nounwind uwtable
define double @H5_get_time() #0 {
  %1 = alloca double, align 8
  %2 = alloca %struct.timespec, align 8
  call void @llvm.lifetime.start.p0(i64 8, ptr %1) #8
  store double 0.000000e+00, ptr %1, align 8, !tbaa !10
  %3 = load i8, ptr @H5_init_g, align 1, !tbaa !17, !range !19, !noundef !20
  %4 = trunc i8 %3 to i1
  br i1 %4, label %9, label %5

5:                                                ; preds = %0
  %6 = load i8, ptr @H5_libterm_g, align 1, !tbaa !17, !range !19, !noundef !20
  %7 = trunc i8 %6 to i1
  %8 = xor i1 %7, true
  br label %9

9:                                                ; preds = %5, %0
  %10 = phi i1 [ true, %0 ], [ %8, %5 ]
  %11 = xor i1 %10, true
  %12 = xor i1 %11, true
  %13 = zext i1 %12 to i32
  %14 = sext i32 %13 to i64
  %15 = call i64 @llvm.expect.i64(i64 %14, i64 1)
  %16 = icmp ne i64 %15, 0
  br i1 %16, label %17, label %27

17:                                               ; preds = %9
  call void @llvm.lifetime.start.p0(i64 16, ptr %2) #8
  %18 = call i32 @clock_gettime(i32 noundef 1, ptr noundef %2) #8
  %19 = getelementptr inbounds nuw %struct.timespec, ptr %2, i32 0, i32 0
  %20 = load i64, ptr %19, align 8, !tbaa !14
  %21 = sitofp i64 %20 to double
  %22 = getelementptr inbounds nuw %struct.timespec, ptr %2, i32 0, i32 1
  %23 = load i64, ptr %22, align 8, !tbaa !16
  %24 = sitofp i64 %23 to double
  %25 = fdiv double %24, 1.000000e+09
  %26 = fadd double %21, %25
  store double %26, ptr %1, align 8, !tbaa !10
  call void @llvm.lifetime.end.p0(i64 16, ptr %2) #8
  br label %27

27:                                               ; preds = %17, %9
  %28 = load double, ptr %1, align 8, !tbaa !10
  call void @llvm.lifetime.end.p0(i64 8, ptr %1) #8
  ret double %28
}

; Function Attrs: nounwind uwtable
define internal i32 @H5__timer_get_timevals(ptr noundef %0) #0 {
  %2 = alloca i32, align 4
  %3 = alloca ptr, align 8
  %4 = alloca %struct.rusage, align 8
  %5 = alloca i32, align 4
  store ptr %0, ptr %3, align 8, !tbaa !21
  call void @llvm.lifetime.start.p0(i64 144, ptr %4) #8
  %6 = call i32 @getrusage(i32 noundef 0, ptr noundef %4) #8
  %7 = icmp slt i32 %6, 0
  br i1 %7, label %8, label %9

8:                                                ; preds = %1
  store i32 -1, ptr %2, align 4
  store i32 1, ptr %5, align 4
  br label %34

9:                                                ; preds = %1
  %10 = getelementptr inbounds nuw %struct.rusage, ptr %4, i32 0, i32 1
  %11 = getelementptr inbounds nuw %struct.timeval, ptr %10, i32 0, i32 0
  %12 = load i64, ptr %11, align 8, !tbaa !25
  %13 = sitofp i64 %12 to double
  %14 = getelementptr inbounds nuw %struct.rusage, ptr %4, i32 0, i32 1
  %15 = getelementptr inbounds nuw %struct.timeval, ptr %14, i32 0, i32 1
  %16 = load i64, ptr %15, align 8, !tbaa !27
  %17 = sitofp i64 %16 to double
  %18 = fdiv double %17, 1.000000e+06
  %19 = fadd double %13, %18
  %20 = load ptr, ptr %3, align 8, !tbaa !21
  %21 = getelementptr inbounds nuw %struct.H5_timevals_t, ptr %20, i32 0, i32 1
  store double %19, ptr %21, align 8, !tbaa !28
  %22 = getelementptr inbounds nuw %struct.rusage, ptr %4, i32 0, i32 0
  %23 = getelementptr inbounds nuw %struct.timeval, ptr %22, i32 0, i32 0
  %24 = load i64, ptr %23, align 8, !tbaa !29
  %25 = sitofp i64 %24 to double
  %26 = getelementptr inbounds nuw %struct.rusage, ptr %4, i32 0, i32 0
  %27 = getelementptr inbounds nuw %struct.timeval, ptr %26, i32 0, i32 1
  %28 = load i64, ptr %27, align 8, !tbaa !30
  %29 = sitofp i64 %28 to double
  %30 = fdiv double %29, 1.000000e+06
  %31 = fadd double %25, %30
  %32 = load ptr, ptr %3, align 8, !tbaa !21
  %33 = getelementptr inbounds nuw %struct.H5_timevals_t, ptr %32, i32 0, i32 0
  store double %31, ptr %33, align 8, !tbaa !31
  store i32 0, ptr %5, align 4
  br label %34

34:                                               ; preds = %9, %8
  call void @llvm.lifetime.end.p0(i64 144, ptr %4) #8
  %35 = load i32, ptr %5, align 4
  switch i32 %35, label %42 [
    i32 0, label %36
    i32 1, label %40
  ]

36:                                               ; preds = %34
  %37 = call double @H5_get_time()
  %38 = load ptr, ptr %3, align 8, !tbaa !21
  %39 = getelementptr inbounds nuw %struct.H5_timevals_t, ptr %38, i32 0, i32 2
  store double %37, ptr %39, align 8, !tbaa !32
  store i32 0, ptr %2, align 4
  br label %40

40:                                               ; preds = %36, %34
  %41 = load i32, ptr %2, align 4
  ret i32 %41

42:                                               ; preds = %34
  unreachable
}

; Function Attrs: nounwind uwtable
define i32 @H5_timer_get_total_times(ptr noundef byval(%struct.H5_timer_t) align 8 %0, ptr noundef %1) #0 {
  %3 = alloca i32, align 4
  %4 = alloca ptr, align 8
  %5 = alloca %struct.H5_timevals_t, align 8
  %6 = alloca i32, align 4
  store ptr %1, ptr %4, align 8, !tbaa !21
  %7 = getelementptr inbounds nuw %struct.H5_timer_t, ptr %0, i32 0, i32 3
  %8 = load i8, ptr %7, align 8, !tbaa !22, !range !19, !noundef !20
  %9 = trunc i8 %8 to i1
  br i1 %9, label %10, label %54

10:                                               ; preds = %2
  call void @llvm.lifetime.start.p0(i64 24, ptr %5) #8
  %11 = call i32 @H5__timer_get_timevals(ptr noundef %5)
  %12 = icmp slt i32 %11, 0
  br i1 %12, label %13, label %14

13:                                               ; preds = %10
  store i32 -1, ptr %3, align 4
  store i32 1, ptr %6, align 4
  br label %51

14:                                               ; preds = %10
  %15 = getelementptr inbounds nuw %struct.H5_timer_t, ptr %0, i32 0, i32 2
  %16 = getelementptr inbounds nuw %struct.H5_timevals_t, ptr %15, i32 0, i32 2
  %17 = load double, ptr %16, align 8, !tbaa !39
  %18 = getelementptr inbounds nuw %struct.H5_timevals_t, ptr %5, i32 0, i32 2
  %19 = load double, ptr %18, align 8, !tbaa !32
  %20 = getelementptr inbounds nuw %struct.H5_timer_t, ptr %0, i32 0, i32 0
  %21 = getelementptr inbounds nuw %struct.H5_timevals_t, ptr %20, i32 0, i32 2
  %22 = load double, ptr %21, align 8, !tbaa !34
  %23 = fsub double %19, %22
  %24 = fadd double %17, %23
  %25 = load ptr, ptr %4, align 8, !tbaa !21
  %26 = getelementptr inbounds nuw %struct.H5_timevals_t, ptr %25, i32 0, i32 2
  store double %24, ptr %26, align 8, !tbaa !32
  %27 = getelementptr inbounds nuw %struct.H5_timer_t, ptr %0, i32 0, i32 2
  %28 = getelementptr inbounds nuw %struct.H5_timevals_t, ptr %27, i32 0, i32 1
  %29 = load double, ptr %28, align 8, !tbaa !40
  %30 = getelementptr inbounds nuw %struct.H5_timevals_t, ptr %5, i32 0, i32 1
  %31 = load double, ptr %30, align 8, !tbaa !28
  %32 = getelementptr inbounds nuw %struct.H5_timer_t, ptr %0, i32 0, i32 0
  %33 = getelementptr inbounds nuw %struct.H5_timevals_t, ptr %32, i32 0, i32 1
  %34 = load double, ptr %33, align 8, !tbaa !36
  %35 = fsub double %31, %34
  %36 = fadd double %29, %35
  %37 = load ptr, ptr %4, align 8, !tbaa !21
  %38 = getelementptr inbounds nuw %struct.H5_timevals_t, ptr %37, i32 0, i32 1
  store double %36, ptr %38, align 8, !tbaa !28
  %39 = getelementptr inbounds nuw %struct.H5_timer_t, ptr %0, i32 0, i32 2
  %40 = getelementptr inbounds nuw %struct.H5_timevals_t, ptr %39, i32 0, i32 0
  %41 = load double, ptr %40, align 8, !tbaa !41
  %42 = getelementptr inbounds nuw %struct.H5_timevals_t, ptr %5, i32 0, i32 0
  %43 = load double, ptr %42, align 8, !tbaa !31
  %44 = getelementptr inbounds nuw %struct.H5_timer_t, ptr %0, i32 0, i32 0
  %45 = getelementptr inbounds nuw %struct.H5_timevals_t, ptr %44, i32 0, i32 0
  %46 = load double, ptr %45, align 8, !tbaa !38
  %47 = fsub double %43, %46
  %48 = fadd double %41, %47
  %49 = load ptr, ptr %4, align 8, !tbaa !21
  %50 = getelementptr inbounds nuw %struct.H5_timevals_t, ptr %49, i32 0, i32 0
  store double %48, ptr %50, align 8, !tbaa !31
  store i32 0, ptr %6, align 4
  br label %51

51:                                               ; preds = %14, %13
  call void @llvm.lifetime.end.p0(i64 24, ptr %5) #8
  %52 = load i32, ptr %6, align 4
  switch i32 %52, label %73 [
    i32 0, label %53
    i32 1, label %71
  ]

53:                                               ; preds = %51
  br label %70

54:                                               ; preds = %2
  %55 = getelementptr inbounds nuw %struct.H5_timer_t, ptr %0, i32 0, i32 2
  %56 = getelementptr inbounds nuw %struct.H5_timevals_t, ptr %55, i32 0, i32 2
  %57 = load double, ptr %56, align 8, !tbaa !39
  %58 = load ptr, ptr %4, align 8, !tbaa !21
  %59 = getelementptr inbounds nuw %struct.H5_timevals_t, ptr %58, i32 0, i32 2
  store double %57, ptr %59, align 8, !tbaa !32
  %60 = getelementptr inbounds nuw %struct.H5_timer_t, ptr %0, i32 0, i32 2
  %61 = getelementptr inbounds nuw %struct.H5_timevals_t, ptr %60, i32 0, i32 1
  %62 = load double, ptr %61, align 8, !tbaa !40
  %63 = load ptr, ptr %4, align 8, !tbaa !21
  %64 = getelementptr inbounds nuw %struct.H5_timevals_t, ptr %63, i32 0, i32 1
  store double %62, ptr %64, align 8, !tbaa !28
  %65 = getelementptr inbounds nuw %struct.H5_timer_t, ptr %0, i32 0, i32 2
  %66 = getelementptr inbounds nuw %struct.H5_timevals_t, ptr %65, i32 0, i32 0
  %67 = load double, ptr %66, align 8, !tbaa !41
  %68 = load ptr, ptr %4, align 8, !tbaa !21
  %69 = getelementptr inbounds nuw %struct.H5_timevals_t, ptr %68, i32 0, i32 0
  store double %67, ptr %69, align 8, !tbaa !31
  br label %70

70:                                               ; preds = %54, %53
  store i32 0, ptr %3, align 4
  br label %71

71:                                               ; preds = %70, %51
  %72 = load i32, ptr %3, align 4
  ret i32 %72

73:                                               ; preds = %51
  unreachable
}