; Function Attrs: nounwind uwtable
define range(i32 -1, 1) i32 @H5_timer_get_total_times(ptr noundef readonly byval(%struct.H5_timer_t) align 8 captures(none) %0, ptr noundef writeonly captures(none) %1) local_unnamed_addr #5 {
  %3 = alloca %struct.timespec, align 8
  %4 = alloca %struct.rusage, align 8
  %5 = getelementptr inbounds nuw i8, ptr %0, i64 72
  %6 = load i8, ptr %5, align 8, !tbaa !26, !range !13, !noundef !14
  %7 = trunc nuw i8 %6 to i1
  br i1 %7, label %8, label %62

8:                                                ; preds = %2
  call void @llvm.lifetime.start.p0(i64 144, ptr nonnull %4) #11
  %9 = call i32 @getrusage(i32 noundef 0, ptr noundef nonnull %4) #11
  %10 = icmp slt i32 %9, 0
  br i1 %10, label %61, label %11

11:                                               ; preds = %8
  %12 = getelementptr inbounds nuw i8, ptr %4, i64 16
  %13 = load i64, ptr %12, align 8, !tbaa !16
  %14 = sitofp i64 %13 to double
  %15 = getelementptr inbounds nuw i8, ptr %4, i64 24
  %16 = load i64, ptr %15, align 8, !tbaa !18
  %17 = sitofp i64 %16 to double
  %18 = fdiv double %17, 1.000000e+06
  %19 = fadd double %18, %14
  %20 = load i64, ptr %4, align 8, !tbaa !22
  %21 = sitofp i64 %20 to double
  %22 = getelementptr inbounds nuw i8, ptr %4, i64 8
  %23 = load i64, ptr %22, align 8, !tbaa !23
  %24 = sitofp i64 %23 to double
  %25 = fdiv double %24, 1.000000e+06
  %26 = fadd double %25, %21
  call void @llvm.lifetime.end.p0(i64 144, ptr nonnull %4) #11
  %27 = load i8, ptr @H5_init_g, align 1, !tbaa !11, !range !13, !noundef !14
  %28 = trunc nuw i8 %27 to i1
  %29 = load i8, ptr @H5_libterm_g, align 1, !range !13
  %30 = trunc nuw i8 %29 to i1
  %31 = xor i1 %30, true
  %32 = select i1 %28, i1 true, i1 %31
  br i1 %32, label %33, label %.thread, !prof !15

33:                                               ; preds = %11
  call void @llvm.lifetime.start.p0(i64 16, ptr nonnull %3) #11
  %34 = call i32 @clock_gettime(i32 noundef 1, ptr noundef nonnull %3) #11
  %35 = load i64, ptr %3, align 8, !tbaa !8
  %36 = sitofp i64 %35 to double
  %37 = getelementptr inbounds nuw i8, ptr %3, i64 8
  %38 = load i64, ptr %37, align 8, !tbaa !10
  %39 = sitofp i64 %38 to double
  %40 = fdiv double %39, 1.000000e+09
  %41 = fadd double %40, %36
  call void @llvm.lifetime.end.p0(i64 16, ptr nonnull %3) #11
  br label %.thread

.thread:                                          ; preds = %11, %33
  %.sroa.6.0.ph = phi double [ 0.000000e+00, %11 ], [ %41, %33 ]
  %42 = getelementptr inbounds nuw i8, ptr %0, i64 48
  %43 = getelementptr inbounds nuw i8, ptr %0, i64 64
  %44 = load double, ptr %43, align 8, !tbaa !34
  %45 = getelementptr inbounds nuw i8, ptr %0, i64 16
  %46 = load double, ptr %45, align 8, !tbaa !30
  %47 = fsub double %.sroa.6.0.ph, %46
  %48 = fadd double %44, %47
  %49 = getelementptr inbounds nuw i8, ptr %1, i64 16
  store double %48, ptr %49, align 8, !tbaa !25
  %50 = getelementptr inbounds nuw i8, ptr %0, i64 56
  %51 = load double, ptr %50, align 8, !tbaa !35
  %52 = getelementptr inbounds nuw i8, ptr %0, i64 8
  %53 = load double, ptr %52, align 8, !tbaa !32
  %54 = fsub double %19, %53
  %55 = fadd double %51, %54
  %56 = getelementptr inbounds nuw i8, ptr %1, i64 8
  store double %55, ptr %56, align 8, !tbaa !19
  %57 = load double, ptr %42, align 8, !tbaa !36
  %58 = load double, ptr %0, align 8, !tbaa !33
  %59 = fsub double %26, %58
  %60 = fadd double %57, %59
  store double %60, ptr %1, align 8, !tbaa !24
  br label %71

61:                                               ; preds = %8
  call void @llvm.lifetime.end.p0(i64 144, ptr nonnull %4) #11
  br label %71

62:                                               ; preds = %2
  %63 = getelementptr inbounds nuw i8, ptr %0, i64 48
  %64 = getelementptr inbounds nuw i8, ptr %0, i64 64
  %65 = load double, ptr %64, align 8, !tbaa !34
  %66 = getelementptr inbounds nuw i8, ptr %1, i64 16
  store double %65, ptr %66, align 8, !tbaa !25
  %67 = getelementptr inbounds nuw i8, ptr %0, i64 56
  %68 = load double, ptr %67, align 8, !tbaa !35
  %69 = getelementptr inbounds nuw i8, ptr %1, i64 8
  store double %68, ptr %69, align 8, !tbaa !19
  %70 = load double, ptr %63, align 8, !tbaa !36
  store double %70, ptr %1, align 8, !tbaa !24
  br label %71

71:                                               ; preds = %62, %.thread, %61
  %.1 = phi i32 [ -1, %61 ], [ 0, %.thread ], [ 0, %62 ]
  ret i32 %.1
}